(lp0
(dp1
S'dictVal'
p2
S'terrorist_attack'
p3
sS'synsets'
p4
(lp5
Vterrorist attack
p6
asa(dp7
g2
S'earthquake'
p8
sg4
(lp9
Vseism
p10
aVtemblor
p11
aVearthquake
p12
aVquake
p13
asa(dp14
g2
S'war'
p15
sg4
(lp16
Vstate of war
p17
aVwar
p18
aVwarfare
p19
asa(dp20
g2
S'flood'
p21
sg4
(lp22
Vrising tide
p23
aVinundate
p24
aVflowage
p25
aVdeluge
p26
aVswamp
p27
aVinundation
p28
aVglut
p29
aVoverflow
p30
aVphotoflood
p31
aVoutpouring
p32
aVflood
p33
aVflood tide
p34
aValluvion
p35
aVflood lamp
p36
aVfloodlight
p37
aVtorrent
p38
aVoversupply
p39
asa(dp40
g2
S'cyclone'
p41
sg4
(lp42
Vcyclone
p43
asa(dp44
g2
S'tornado'
p45
sg4
(lp46
Vtornado
p47
aVtwister
p48
aVcrack cocaine
p49
aVcrack
p50
asa.